
fib-csr.elf:     file format elf32-littleriscv


Disassembly of section .text.init:

00000000 <_start>:
   0:	08c000ef          	jal	ra,8c <main>

Disassembly of section .text:

00000004 <fib>:
   4:	fe010113          	addi	sp,sp,-32
   8:	00112e23          	sw	ra,28(sp)
   c:	00812c23          	sw	s0,24(sp)
  10:	00100073          	ebreak
  14:	00912a23          	sw	s1,20(sp)
  18:	02010413          	addi	s0,sp,32
  1c:	fea42623          	sw	a0,-20(s0)
  20:	00100073          	ebreak
  24:	fec42703          	lw	a4,-20(s0)
  28:	00100793          	li	a5,1
  2c:	00e7c663          	blt	a5,a4,38 <fib+0x34>
  30:	00100793          	li	a5,1
  34:	0380006f          	j	6c <fib+0x68>
  38:	fec42783          	lw	a5,-20(s0)
  3c:	fff78793          	addi	a5,a5,-1
  40:	00078513          	mv	a0,a5
  44:	00100073          	ebreak
  48:	fbdff0ef          	jal	ra,4 <fib>
  4c:	00050493          	mv	s1,a0
  50:	fec42783          	lw	a5,-20(s0)
  54:	ffe78793          	addi	a5,a5,-2
  58:	00078513          	mv	a0,a5
  5c:	00100073          	ebreak
  60:	fa5ff0ef          	jal	ra,4 <fib>
  64:	00050793          	mv	a5,a0
  68:	00f487b3          	add	a5,s1,a5
  6c:	00078513          	mv	a0,a5
  70:	01c12083          	lw	ra,28(sp)
  74:	00100073          	ebreak
  78:	01812403          	lw	s0,24(sp)
  7c:	01412483          	lw	s1,20(sp)
  80:	02010113          	addi	sp,sp,32
  84:	00008067          	ret
  88:	00100073          	ebreak

0000008c <main>:
  8c:	ff010113          	addi	sp,sp,-16
  90:	00100073          	ebreak
  94:	00112623          	sw	ra,12(sp)
  98:	00812423          	sw	s0,8(sp)
  9c:	00100073          	ebreak
  a0:	01010413          	addi	s0,sp,16
  a4:	00a00513          	li	a0,10
  a8:	f5dff0ef          	jal	ra,4 <fib>
  ac:	0000006f          	j	ac <main+0x20>
  b0:	fe010113          	addi	sp,sp,-32
  b4:	00e12e23          	sw	a4,28(sp)
  b8:	00f12c23          	sw	a5,24(sp)
  bc:	34202773          	csrr	a4,mcause
  c0:	01f00793          	li	a5,31
  c4:	00f75733          	srl	a4,a4,a5
  c8:	00071863          	bnez	a4,d8 <main+0x4c>
  cc:	34102773          	csrr	a4,mepc
  d0:	00170713          	addi	a4,a4,1
  d4:	34171073          	csrw	mepc,a4
  d8:	01c12703          	lw	a4,28(sp)
  dc:	01812783          	lw	a5,24(sp)
  e0:	02010113          	addi	sp,sp,32
  e4:	30200073          	mret
